target datalayout = "e-m:e-p270:32:32-p271:32:32-p272:64:64-i64:64-i128:128-f80:128-n8:16:32:64-S128"
target triple = "x86_64-unknown-linux-gnu"

%class.act_cache = type <{ ptr, %class.cmap, %class.svector, i32, i32, i32, [4 x i8] }>
%class.cmap = type { %class.chashtable }
%class.chashtable = type { ptr, i32, i32, i32, i32, i32, i32, i32, ptr, ptr, ptr }
%class.svector = type { %class.vector }
%class.vector = type { ptr }
%"struct.std::pair" = type <{ ptr, i32, [4 x i8] }>
%"struct.cmap<std::pair<expr *, unsigned int>, expr *, act_cache::entry_hash, default_eq<std::pair<expr *, unsigned int>>>::key_value" = type { %"struct.std::pair", ptr }
%"struct.chashtable<cmap<std::pair<expr *, unsigned int>, expr *, act_cache::entry_hash, default_eq<std::pair<expr *, unsigned int>>>::key_value, cmap<std::pair<expr *, unsigned int>, expr *, act_cache::entry_hash, default_eq<std::pair<expr *, unsigned int>>>::key_value_hash_proc, cmap<std::pair<expr *, unsigned int>, expr *, act_cache::entry_hash, default_eq<std::pair<expr *, unsigned int>>>::key_value_eq_proc>::cell" = type { ptr, %"struct.cmap<std::pair<expr *, unsigned int>, expr *, act_cache::entry_hash, default_eq<std::pair<expr *, unsigned int>>>::key_value" }

; Function Attrs: mustprogress nounwind uwtable
define linkonce_odr hidden void @_ZNSt4pairIP4exprjEC2IS1_jTnNSt9enable_ifIXsr6__and_ISt37__is_implicitly_default_constructibleIT_ES5_IT0_EEE5valueEbE4typeELb1EEEv(ptr noundef nonnull align 8 dereferenceable(12) %this) unnamed_addr #5 comdat align 2 {
entry:
  %this.addr = alloca ptr, align 8
  store ptr %this, ptr %this.addr, align 8
  %this1 = load ptr, ptr %this.addr, align 8
  %first = getelementptr inbounds %"struct.std::pair", ptr %this1, i32 0, i32 0
  store ptr null, ptr %first, align 8
  %second = getelementptr inbounds %"struct.std::pair", ptr %this1, i32 0, i32 1
  store i32 0, ptr %second, align 8
  ret void
}

; Function Attrs: mustprogress uwtable
define linkonce_odr hidden void @_ZN4cmapISt4pairIP4exprjES2_N9act_cache10entry_hashE10default_eqIS3_EE9key_valueC2Ev(ptr noundef nonnull align 8 dereferenceable(24) %this) unnamed_addr #4 comdat align 2 {
entry:
  %this.addr = alloca ptr, align 8
  store ptr %this, ptr %this.addr, align 8
  %this1 = load ptr, ptr %this.addr, align 8
  %m_key = getelementptr inbounds %"struct.cmap<std::pair<expr *, unsigned int>, expr *, act_cache::entry_hash, default_eq<std::pair<expr *, unsigned int>>>::key_value", ptr %this1, i32 0, i32 0
  call void @_ZNSt4pairIP4exprjEC2IS1_jTnNSt9enable_ifIXsr6__and_ISt37__is_implicitly_default_constructibleIT_ES5_IT0_EEE5valueEbE4typeELb1EEEv(ptr noundef nonnull align 8 dereferenceable(12) %m_key)
  ret void
}

; Function Attrs: mustprogress uwtable
define linkonce_odr hidden void @_ZN10chashtableIN4cmapISt4pairIP4exprjES3_N9act_cache10entry_hashE10default_eqIS4_EE9key_valueENS9_19key_value_hash_procENS9_17key_value_eq_procEE4cellC2Ev(ptr noundef nonnull align 8 dereferenceable(32) %this) unnamed_addr #4 comdat align 2 {
entry:
  %this.addr = alloca ptr, align 8
  store ptr %this, ptr %this.addr, align 8
  %this1 = load ptr, ptr %this.addr, align 8
  %m_next = getelementptr inbounds %"struct.chashtable<cmap<std::pair<expr *, unsigned int>, expr *, act_cache::entry_hash, default_eq<std::pair<expr *, unsigned int>>>::key_value, cmap<std::pair<expr *, unsigned int>, expr *, act_cache::entry_hash, default_eq<std::pair<expr *, unsigned int>>>::key_value_hash_proc, cmap<std::pair<expr *, unsigned int>, expr *, act_cache::entry_hash, default_eq<std::pair<expr *, unsigned int>>>::key_value_eq_proc>::cell", ptr %this1, i32 0, i32 0
  store ptr inttoptr (i64 1 to ptr), ptr %m_next, align 8
  %m_data = getelementptr inbounds %"struct.chashtable<cmap<std::pair<expr *, unsigned int>, expr *, act_cache::entry_hash, default_eq<std::pair<expr *, unsigned int>>>::key_value, cmap<std::pair<expr *, unsigned int>, expr *, act_cache::entry_hash, default_eq<std::pair<expr *, unsigned int>>>::key_value_hash_proc, cmap<std::pair<expr *, unsigned int>, expr *, act_cache::entry_hash, default_eq<std::pair<expr *, unsigned int>>>::key_value_eq_proc>::cell", ptr %this1, i32 0, i32 1
  call void @_ZN4cmapISt4pairIP4exprjES2_N9act_cache10entry_hashE10default_eqIS3_EE9key_valueC2Ev(ptr noundef nonnull align 8 dereferenceable(24) %m_data)
  ret void
}

; Function Attrs: mustprogress uwtable
define linkonce_odr hidden noalias noundef ptr @_Z10alloc_vectIN10chashtableIN4cmapISt4pairIP4exprjES4_N9act_cache10entry_hashE10default_eqIS5_EE9key_valueENSA_19key_value_hash_procENSA_17key_value_eq_procEE4cellEEPT_j(i32 noundef %sz) #4 comdat {
entry:
  %sz.addr = alloca i32, align 4
  %r = alloca ptr, align 8
  %curr = alloca ptr, align 8
  %i = alloca i32, align 4
  store i32 %sz, ptr %sz.addr, align 4
  %0 = load i32, ptr %sz.addr, align 4
  %conv = zext i32 %0 to i64
  %mul = mul i64 32, %conv
  %call = call noalias noundef ptr @_ZN6memory8allocateEm(i64 noundef %mul)
  store ptr %call, ptr %r, align 8
  %1 = load ptr, ptr %r, align 8
  store ptr %1, ptr %curr, align 8
  store i32 0, ptr %i, align 4
  br label %for.cond

for.cond:                                         ; preds = %for.inc, %entry
  %2 = load i32, ptr %i, align 4
  %3 = load i32, ptr %sz.addr, align 4
  %cmp = icmp ult i32 %2, %3
  br i1 %cmp, label %for.body, label %for.end

for.body:                                         ; preds = %for.cond
  %4 = load ptr, ptr %curr, align 8
  call void @_ZN10chashtableIN4cmapISt4pairIP4exprjES3_N9act_cache10entry_hashE10default_eqIS4_EE9key_valueENS9_19key_value_hash_procENS9_17key_value_eq_procEE4cellC2Ev(ptr noundef nonnull align 8 dereferenceable(32) %4)
  br label %for.inc

for.inc:                                          ; preds = %for.body
  %5 = load i32, ptr %i, align 4
  %inc = add i32 %5, 1
  store i32 %inc, ptr %i, align 4
  %6 = load ptr, ptr %curr, align 8
  %incdec.ptr = getelementptr inbounds %"struct.chashtable<cmap<std::pair<expr *, unsigned int>, expr *, act_cache::entry_hash, default_eq<std::pair<expr *, unsigned int>>>::key_value, cmap<std::pair<expr *, unsigned int>, expr *, act_cache::entry_hash, default_eq<std::pair<expr *, unsigned int>>>::key_value_hash_proc, cmap<std::pair<expr *, unsigned int>, expr *, act_cache::entry_hash, default_eq<std::pair<expr *, unsigned int>>>::key_value_eq_proc>::cell", ptr %6, i32 1
  store ptr %incdec.ptr, ptr %curr, align 8
  br label %for.cond, !llvm.loop !9

for.end:                                          ; preds = %for.cond
  %7 = load ptr, ptr %r, align 8
  ret ptr %7
}

; Function Attrs: mustprogress uwtable
define linkonce_odr hidden noundef ptr @_ZN10chashtableIN4cmapISt4pairIP4exprjES3_N9act_cache10entry_hashE10default_eqIS4_EE9key_valueENS9_19key_value_hash_procENS9_17key_value_eq_procEE11alloc_tableEj(i32 noundef %sz) #4 comdat align 2 {
entry:
  %sz.addr = alloca i32, align 4
  store i32 %sz, ptr %sz.addr, align 4
  %0 = load i32, ptr %sz.addr, align 4
  %call = call noalias noundef ptr @_Z10alloc_vectIN10chashtableIN4cmapISt4pairIP4exprjES4_N9act_cache10entry_hashE10default_eqIS5_EE9key_valueENSA_19key_value_hash_procENSA_17key_value_eq_procEE4cellEEPT_j(i32 noundef %0)
  ret ptr %call
}

; Function Attrs: mustprogress uwtable
define linkonce_odr hidden void @_Z12dealloc_vectIN10chashtableIN4cmapISt4pairIP4exprjES4_N9act_cache10entry_hashE10default_eqIS5_EE9key_valueENSA_19key_value_hash_procENSA_17key_value_eq_procEE4cellEEvPT_j(ptr noundef %ptr, i32 noundef %sz) #4 comdat {
entry:
  %ptr.addr = alloca ptr, align 8
  %sz.addr = alloca i32, align 4
  %curr = alloca ptr, align 8
  %i = alloca i32, align 4
  store ptr %ptr, ptr %ptr.addr, align 8
  store i32 %sz, ptr %sz.addr, align 4
  %0 = load ptr, ptr %ptr.addr, align 8
  %cmp = icmp eq ptr %0, null
  br i1 %cmp, label %if.then, label %if.end

if.then:                                          ; preds = %entry
  br label %return

if.end:                                           ; preds = %entry
  %1 = load ptr, ptr %ptr.addr, align 8
  store ptr %1, ptr %curr, align 8
  store i32 0, ptr %i, align 4
  br label %for.cond

for.cond:                                         ; preds = %for.inc, %if.end
  %2 = load i32, ptr %i, align 4
  %3 = load i32, ptr %sz.addr, align 4
  %cmp1 = icmp ult i32 %2, %3
  br i1 %cmp1, label %for.body, label %for.end

for.body:                                         ; preds = %for.cond
  br label %for.inc

for.inc:                                          ; preds = %for.body
  %4 = load i32, ptr %i, align 4
  %inc = add i32 %4, 1
  store i32 %inc, ptr %i, align 4
  %5 = load ptr, ptr %curr, align 8
  %incdec.ptr = getelementptr inbounds %"struct.chashtable<cmap<std::pair<expr *, unsigned int>, expr *, act_cache::entry_hash, default_eq<std::pair<expr *, unsigned int>>>::key_value, cmap<std::pair<expr *, unsigned int>, expr *, act_cache::entry_hash, default_eq<std::pair<expr *, unsigned int>>>::key_value_hash_proc, cmap<std::pair<expr *, unsigned int>, expr *, act_cache::entry_hash, default_eq<std::pair<expr *, unsigned int>>>::key_value_eq_proc>::cell", ptr %5, i32 1
  store ptr %incdec.ptr, ptr %curr, align 8
  br label %for.cond, !llvm.loop !7

for.end:                                          ; preds = %for.cond
  %6 = load ptr, ptr %ptr.addr, align 8
  call void @_ZN6memory10deallocateEPv(ptr noundef %6)
  br label %return

return:                                           ; preds = %for.end, %if.then
  ret void
}

; Function Attrs: mustprogress uwtable
define linkonce_odr hidden void @_ZN10chashtableIN4cmapISt4pairIP4exprjES3_N9act_cache10entry_hashE10default_eqIS4_EE9key_valueENS9_19key_value_hash_procENS9_17key_value_eq_procEE4initEjj(ptr noundef nonnull align 8 dereferenceable(64) %this, i32 noundef %slots, i32 noundef %cellar) #4 comdat align 2 {
entry:
  %this.addr = alloca ptr, align 8
  %slots.addr = alloca i32, align 4
  %cellar.addr = alloca i32, align 4
  store ptr %this, ptr %this.addr, align 8
  store i32 %slots, ptr %slots.addr, align 4
  store i32 %cellar, ptr %cellar.addr, align 4
  %this1 = load ptr, ptr %this.addr, align 8
  %0 = load i32, ptr %slots.addr, align 4
  %1 = load i32, ptr %cellar.addr, align 4
  %add = add i32 %0, %1
  %m_capacity = getelementptr inbounds %class.chashtable, ptr %this1, i32 0, i32 1
  store i32 %add, ptr %m_capacity, align 8
  %m_capacity2 = getelementptr inbounds %class.chashtable, ptr %this1, i32 0, i32 1
  %2 = load i32, ptr %m_capacity2, align 8
  %call = call noundef ptr @_ZN10chashtableIN4cmapISt4pairIP4exprjES3_N9act_cache10entry_hashE10default_eqIS4_EE9key_valueENS9_19key_value_hash_procENS9_17key_value_eq_procEE11alloc_tableEj(i32 noundef %2)
  %m_table = getelementptr inbounds %class.chashtable, ptr %this1, i32 0, i32 0
  store ptr %call, ptr %m_table, align 8
  %3 = load i32, ptr %slots.addr, align 4
  %m_slots = getelementptr inbounds %class.chashtable, ptr %this1, i32 0, i32 4
  store i32 %3, ptr %m_slots, align 4
  %m_used_slots = getelementptr inbounds %class.chashtable, ptr %this1, i32 0, i32 5
  store i32 0, ptr %m_used_slots, align 8
  %m_size = getelementptr inbounds %class.chashtable, ptr %this1, i32 0, i32 6
  store i32 0, ptr %m_size, align 4
  %m_table3 = getelementptr inbounds %class.chashtable, ptr %this1, i32 0, i32 0
  %4 = load ptr, ptr %m_table3, align 8
  %5 = load i32, ptr %slots.addr, align 4
  %idx.ext = zext i32 %5 to i64
  %add.ptr = getelementptr inbounds %"struct.chashtable<cmap<std::pair<expr *, unsigned int>, expr *, act_cache::entry_hash, default_eq<std::pair<expr *, unsigned int>>>::key_value, cmap<std::pair<expr *, unsigned int>, expr *, act_cache::entry_hash, default_eq<std::pair<expr *, unsigned int>>>::key_value_hash_proc, cmap<std::pair<expr *, unsigned int>, expr *, act_cache::entry_hash, default_eq<std::pair<expr *, unsigned int>>>::key_value_eq_proc>::cell", ptr %4, i64 %idx.ext
  %m_next_cell = getelementptr inbounds %class.chashtable, ptr %this1, i32 0, i32 8
  store ptr %add.ptr, ptr %m_next_cell, align 8
  %m_free_cell = getelementptr inbounds %class.chashtable, ptr %this1, i32 0, i32 9
  store ptr null, ptr %m_free_cell, align 8
  %m_tofree_cell = getelementptr inbounds %class.chashtable, ptr %this1, i32 0, i32 10
  store ptr null, ptr %m_tofree_cell, align 8
  ret void
}

; Function Attrs: mustprogress uwtable
define linkonce_odr hidden void @_ZN10chashtableIN4cmapISt4pairIP4exprjES3_N9act_cache10entry_hashE10default_eqIS4_EE9key_valueENS9_19key_value_hash_procENS9_17key_value_eq_procEE12delete_tableEv(ptr noundef nonnull align 8 dereferenceable(64) %this) #4 comdat align 2 {
entry:
  %this.addr = alloca ptr, align 8
  store ptr %this, ptr %this.addr, align 8
  %this1 = load ptr, ptr %this.addr, align 8
  %m_table = getelementptr inbounds %class.chashtable, ptr %this1, i32 0, i32 0
  %0 = load ptr, ptr %m_table, align 8
  %m_capacity = getelementptr inbounds %class.chashtable, ptr %this1, i32 0, i32 1
  %1 = load i32, ptr %m_capacity, align 8
  call void @_Z12dealloc_vectIN10chashtableIN4cmapISt4pairIP4exprjES4_N9act_cache10entry_hashE10default_eqIS5_EE9key_valueENSA_19key_value_hash_procENSA_17key_value_eq_procEE4cellEEvPT_j(ptr noundef %0, i32 noundef %1)
  ret void
}

; Function Attrs: mustprogress uwtable
define linkonce_odr hidden void @_ZN10chashtableIN4cmapISt4pairIP4exprjES3_N9act_cache10entry_hashE10default_eqIS4_EE9key_valueENS9_19key_value_hash_procENS9_17key_value_eq_procEE8finalizeEv(ptr noundef nonnull align 8 dereferenceable(64) %this) #4 comdat align 2 {
entry:
  %this.addr = alloca ptr, align 8
  store ptr %this, ptr %this.addr, align 8
  %this1 = load ptr, ptr %this.addr, align 8
  call void @_ZN10chashtableIN4cmapISt4pairIP4exprjES3_N9act_cache10entry_hashE10default_eqIS4_EE9key_valueENS9_19key_value_hash_procENS9_17key_value_eq_procEE12delete_tableEv(ptr noundef nonnull align 8 dereferenceable(64) %this1)
  %m_init_slots = getelementptr inbounds %class.chashtable, ptr %this1, i32 0, i32 2
  %0 = load i32, ptr %m_init_slots, align 4
  %m_init_cellar = getelementptr inbounds %class.chashtable, ptr %this1, i32 0, i32 3
  %1 = load i32, ptr %m_init_cellar, align 8
  call void @_ZN10chashtableIN4cmapISt4pairIP4exprjES3_N9act_cache10entry_hashE10default_eqIS4_EE9key_valueENS9_19key_value_hash_procENS9_17key_value_eq_procEE4initEjj(ptr noundef nonnull align 8 dereferenceable(64) %this1, i32 noundef %0, i32 noundef %1)
  ret void
}

; Function Attrs: mustprogress uwtable
define linkonce_odr hidden void @_ZN10chashtableIN4cmapISt4pairIP4exprjES3_N9act_cache10entry_hashE10default_eqIS4_EE9key_valueENS9_19key_value_hash_procENS9_17key_value_eq_procEE5resetEv(ptr noundef nonnull align 8 dereferenceable(64) %this) #4 comdat align 2 {
entry:
  %this.addr = alloca ptr, align 8
  store ptr %this, ptr %this.addr, align 8
  %this1 = load ptr, ptr %this.addr, align 8
  %m_size = getelementptr inbounds %class.chashtable, ptr %this1, i32 0, i32 6
  %0 = load i32, ptr %m_size, align 4
  %cmp = icmp eq i32 %0, 0
  br i1 %cmp, label %if.then, label %if.end

if.then:                                          ; preds = %entry
  br label %return

if.end:                                           ; preds = %entry
  call void @_ZN10chashtableIN4cmapISt4pairIP4exprjES3_N9act_cache10entry_hashE10default_eqIS4_EE9key_valueENS9_19key_value_hash_procENS9_17key_value_eq_procEE8finalizeEv(ptr noundef nonnull align 8 dereferenceable(64) %this1)
  br label %return

return:                                           ; preds = %if.end, %if.then
  ret void
}

; Function Attrs: mustprogress nounwind uwtable
define linkonce_odr hidden void @_ZN6vectorISt4pairIP4exprjELb0EjE5resetEv(ptr noundef nonnull align 8 dereferenceable(8) %this) #5 comdat align 2 {
entry:
  %this.addr = alloca ptr, align 8
  store ptr %this, ptr %this.addr, align 8
  %this1 = load ptr, ptr %this.addr, align 8
  %m_data = getelementptr inbounds %class.vector, ptr %this1, i32 0, i32 0
  %0 = load ptr, ptr %m_data, align 8
  %tobool = icmp ne ptr %0, null
  br i1 %tobool, label %if.then, label %if.end

if.then:                                          ; preds = %entry
  %m_data2 = getelementptr inbounds %class.vector, ptr %this1, i32 0, i32 0
  %1 = load ptr, ptr %m_data2, align 8
  %arrayidx = getelementptr inbounds i32, ptr %1, i64 -1
  store i32 0, ptr %arrayidx, align 4
  br label %if.end

if.end:                                           ; preds = %if.then, %entry
  ret void
}

; Function Attrs: mustprogress uwtable
define linkonce_odr hidden void @_ZN4cmapISt4pairIP4exprjES2_N9act_cache10entry_hashE10default_eqIS3_EE5resetEv(ptr noundef nonnull align 8 dereferenceable(64) %this) #4 comdat align 2 {
entry:
  %this.addr = alloca ptr, align 8
  store ptr %this, ptr %this.addr, align 8
  %this1 = load ptr, ptr %this.addr, align 8
  %m_table = getelementptr inbounds %class.cmap, ptr %this1, i32 0, i32 0
  call void @_ZN10chashtableIN4cmapISt4pairIP4exprjES3_N9act_cache10entry_hashE10default_eqIS4_EE9key_valueENS9_19key_value_hash_procENS9_17key_value_eq_procEE5resetEv(ptr noundef nonnull align 8 dereferenceable(64) %m_table)
  ret void
}

; Function Attrs: mustprogress uwtable
define hidden void @_ZN9act_cache5resetEv(ptr noundef nonnull align 8 dereferenceable(92) %this) #4 align 2 {
entry:
  %this.addr = alloca ptr, align 8
  store ptr %this, ptr %this.addr, align 8
  %this1 = load ptr, ptr %this.addr, align 8
  call void @_ZN9act_cache8dec_refsEv(ptr noundef nonnull align 8 dereferenceable(92) %this1)
  %m_table = getelementptr inbounds %class.act_cache, ptr %this1, i32 0, i32 1
  call void @_ZN4cmapISt4pairIP4exprjES2_N9act_cache10entry_hashE10default_eqIS3_EE5resetEv(ptr noundef nonnull align 8 dereferenceable(64) %m_table)
  %m_queue = getelementptr inbounds %class.act_cache, ptr %this1, i32 0, i32 2
  call void @_ZN6vectorISt4pairIP4exprjELb0EjE5resetEv(ptr noundef nonnull align 8 dereferenceable(8) %m_queue)
  %m_unused = getelementptr inbounds %class.act_cache, ptr %this1, i32 0, i32 4
  store i32 0, ptr %m_unused, align 4
  %m_qhead = getelementptr inbounds %class.act_cache, ptr %this1, i32 0, i32 3
  store i32 0, ptr %m_qhead, align 8
  ret void
}