; Function Attrs: mustprogress uwtable
define hidden void @_ZN9act_cache5resetEv(ptr nocapture noundef nonnull align 8 dereferenceable(92) %this) local_unnamed_addr #5 align 2 {
entry:
  tail call void @_ZN9act_cache8dec_refsEv(ptr noundef nonnull align 8 dereferenceable(92) %this)
  %m_table = getelementptr inbounds i8, ptr %this, i64 8
  %m_size.i.i = getelementptr inbounds i8, ptr %this, i64 36
  %0 = load i32, ptr %m_size.i.i, align 4
  %cmp.i.i = icmp eq i32 %0, 0
  br i1 %cmp.i.i, label %_ZN4cmapISt4pairIP4exprjES2_N9act_cache10entry_hashE10default_eqIS3_EE5resetEv.exit, label %if.end.i.i

if.end.i.i:                                       ; preds = %entry
  %1 = load ptr, ptr %m_table, align 8
  %cmp.i.i.i.i.i = icmp eq ptr %1, null
  br i1 %cmp.i.i.i.i.i, label %_ZN10chashtableIN4cmapISt4pairIP4exprjES3_N9act_cache10entry_hashE10default_eqIS4_EE9key_valueENS9_19key_value_hash_procENS9_17key_value_eq_procEE12delete_tableEv.exit.i.i.i, label %for.cond.preheader.i.i.i.i.i

for.cond.preheader.i.i.i.i.i:                     ; preds = %if.end.i.i
  tail call void @_ZN6memory10deallocateEPv(ptr noundef nonnull %1)
  br label %_ZN10chashtableIN4cmapISt4pairIP4exprjES3_N9act_cache10entry_hashE10default_eqIS4_EE9key_valueENS9_19key_value_hash_procENS9_17key_value_eq_procEE12delete_tableEv.exit.i.i.i

_ZN10chashtableIN4cmapISt4pairIP4exprjES3_N9act_cache10entry_hashE10default_eqIS4_EE9key_valueENS9_19key_value_hash_procENS9_17key_value_eq_procEE12delete_tableEv.exit.i.i.i: ; preds = %for.cond.preheader.i.i.i.i.i, %if.end.i.i
  %m_init_slots.i.i.i = getelementptr inbounds i8, ptr %this, i64 20
  %2 = load i32, ptr %m_init_slots.i.i.i, align 4
  %m_init_cellar.i.i.i = getelementptr inbounds i8, ptr %this, i64 24
  %3 = load i32, ptr %m_init_cellar.i.i.i, align 8
  %add.i.i.i.i = add i32 %3, %2
  %m_capacity.i.i.i.i = getelementptr inbounds i8, ptr %this, i64 16
  store i32 %add.i.i.i.i, ptr %m_capacity.i.i.i.i, align 8
  %conv.i.i.i.i.i.i = zext i32 %add.i.i.i.i to i64
  %mul.i.i.i.i.i.i = shl nuw nsw i64 %conv.i.i.i.i.i.i, 5
  %call.i.i.i.i.i.i = tail call noalias noundef ptr @_ZN6memory8allocateEm(i64 noundef %mul.i.i.i.i.i.i)
  %cmp5.not.i.i.i.i.i.i = icmp eq i32 %add.i.i.i.i, 0
  br i1 %cmp5.not.i.i.i.i.i.i, label %_ZN10chashtableIN4cmapISt4pairIP4exprjES3_N9act_cache10entry_hashE10default_eqIS4_EE9key_valueENS9_19key_value_hash_procENS9_17key_value_eq_procEE8finalizeEv.exit.i.i, label %for.body.i.i.i.i.i.i

for.body.i.i.i.i.i.i:                             ; preds = %_ZN10chashtableIN4cmapISt4pairIP4exprjES3_N9act_cache10entry_hashE10default_eqIS4_EE9key_valueENS9_19key_value_hash_procENS9_17key_value_eq_procEE12delete_tableEv.exit.i.i.i, %for.body.i.i.i.i.i.i
  %i.07.i.i.i.i.i.i = phi i32 [ %inc.i.i.i.i.i.i, %for.body.i.i.i.i.i.i ], [ 0, %_ZN10chashtableIN4cmapISt4pairIP4exprjES3_N9act_cache10entry_hashE10default_eqIS4_EE9key_valueENS9_19key_value_hash_procENS9_17key_value_eq_procEE12delete_tableEv.exit.i.i.i ]
  %curr.06.i.i.i.i.i.i = phi ptr [ %incdec.ptr.i.i.i.i.i.i, %for.body.i.i.i.i.i.i ], [ %call.i.i.i.i.i.i, %_ZN10chashtableIN4cmapISt4pairIP4exprjES3_N9act_cache10entry_hashE10default_eqIS4_EE9key_valueENS9_19key_value_hash_procENS9_17key_value_eq_procEE12delete_tableEv.exit.i.i.i ]
  store ptr inttoptr (i64 1 to ptr), ptr %curr.06.i.i.i.i.i.i, align 8
  %m_data.i.i.i.i.i.i.i = getelementptr inbounds i8, ptr %curr.06.i.i.i.i.i.i, i64 8
  store ptr null, ptr %m_data.i.i.i.i.i.i.i, align 8
  %second.i.i.i.i.i.i.i.i.i = getelementptr inbounds i8, ptr %curr.06.i.i.i.i.i.i, i64 16
  store i32 0, ptr %second.i.i.i.i.i.i.i.i.i, align 8
  %inc.i.i.i.i.i.i = add nuw i32 %i.07.i.i.i.i.i.i, 1
  %incdec.ptr.i.i.i.i.i.i = getelementptr inbounds i8, ptr %curr.06.i.i.i.i.i.i, i64 32
  %exitcond.not.i.i.i.i.i.i = icmp eq i32 %inc.i.i.i.i.i.i, %add.i.i.i.i
  br i1 %exitcond.not.i.i.i.i.i.i, label %_ZN10chashtableIN4cmapISt4pairIP4exprjES3_N9act_cache10entry_hashE10default_eqIS4_EE9key_valueENS9_19key_value_hash_procENS9_17key_value_eq_procEE8finalizeEv.exit.i.i, label %for.body.i.i.i.i.i.i, !llvm.loop !12

_ZN10chashtableIN4cmapISt4pairIP4exprjES3_N9act_cache10entry_hashE10default_eqIS4_EE9key_valueENS9_19key_value_hash_procENS9_17key_value_eq_procEE8finalizeEv.exit.i.i: ; preds = %for.body.i.i.i.i.i.i, %_ZN10chashtableIN4cmapISt4pairIP4exprjES3_N9act_cache10entry_hashE10default_eqIS4_EE9key_valueENS9_19key_value_hash_procENS9_17key_value_eq_procEE12delete_tableEv.exit.i.i.i
  store ptr %call.i.i.i.i.i.i, ptr %m_table, align 8
  %m_slots.i.i.i.i = getelementptr inbounds i8, ptr %this, i64 28
  store i32 %2, ptr %m_slots.i.i.i.i, align 4
  %m_used_slots.i.i.i.i = getelementptr inbounds i8, ptr %this, i64 32
  store i32 0, ptr %m_used_slots.i.i.i.i, align 8
  store i32 0, ptr %m_size.i.i, align 4
  %idx.ext.i.i.i.i = zext i32 %2 to i64
  %add.ptr.i.i.i.i = getelementptr inbounds %"struct.chashtable<cmap<std::pair<expr *, unsigned int>, expr *, act_cache::entry_hash, default_eq<std::pair<expr *, unsigned int>>>::key_value, cmap<std::pair<expr *, unsigned int>, expr *, act_cache::entry_hash, default_eq<std::pair<expr *, unsigned int>>>::key_value_hash_proc, cmap<std::pair<expr *, unsigned int>, expr *, act_cache::entry_hash, default_eq<std::pair<expr *, unsigned int>>>::key_value_eq_proc>::cell", ptr %call.i.i.i.i.i.i, i64 %idx.ext.i.i.i.i
  %m_next_cell.i.i.i.i = getelementptr inbounds i8, ptr %this, i64 48
  store ptr %add.ptr.i.i.i.i, ptr %m_next_cell.i.i.i.i, align 8
  %m_free_cell.i.i.i.i = getelementptr inbounds i8, ptr %this, i64 56
  tail call void @llvm.memset.p0.i64(ptr noundef nonnull align 8 dereferenceable(16) %m_free_cell.i.i.i.i, i8 0, i64 16, i1 false)
  br label %_ZN4cmapISt4pairIP4exprjES2_N9act_cache10entry_hashE10default_eqIS3_EE5resetEv.exit

_ZN4cmapISt4pairIP4exprjES2_N9act_cache10entry_hashE10default_eqIS3_EE5resetEv.exit: ; preds = %entry, %_ZN10chashtableIN4cmapISt4pairIP4exprjES3_N9act_cache10entry_hashE10default_eqIS4_EE9key_valueENS9_19key_value_hash_procENS9_17key_value_eq_procEE8finalizeEv.exit.i.i
  %m_queue = getelementptr inbounds i8, ptr %this, i64 72
  %4 = load ptr, ptr %m_queue, align 8
  %tobool.not.i = icmp eq ptr %4, null
  br i1 %tobool.not.i, label %_ZN6vectorISt4pairIP4exprjELb0EjE5resetEv.exit, label %if.then.i

if.then.i:                                        ; preds = %_ZN4cmapISt4pairIP4exprjES2_N9act_cache10entry_hashE10default_eqIS3_EE5resetEv.exit
  %arrayidx.i = getelementptr inbounds i8, ptr %4, i64 -4
  store i32 0, ptr %arrayidx.i, align 4
  br label %_ZN6vectorISt4pairIP4exprjELb0EjE5resetEv.exit

_ZN6vectorISt4pairIP4exprjELb0EjE5resetEv.exit:   ; preds = %_ZN4cmapISt4pairIP4exprjES2_N9act_cache10entry_hashE10default_eqIS3_EE5resetEv.exit, %if.then.i
  %m_unused = getelementptr inbounds i8, ptr %this, i64 84
  store i32 0, ptr %m_unused, align 4
  %m_qhead = getelementptr inbounds i8, ptr %this, i64 80
  store i32 0, ptr %m_qhead, align 8
  ret void
}